target datalayout = "e-m:e-p270:32:32-p271:32:32-p272:64:64-i64:64-i128:128-f80:128-n8:16:32:64-S128"
target triple = "x86_64-pc-linux-gnu"

@.str.176 = private unnamed_addr constant [10 x i8] c"launchctl\00", align 1

; Function Attrs: nounwind uwtable
define internal i32 @is_launchctl_available() #0 {
  %1 = alloca i32, align 4
  %2 = alloca i32, align 4
  %3 = alloca i32, align 4
  call void @llvm.lifetime.start.p0(i64 4, ptr %2) #11
  %4 = call i32 @get_schedule_cmd(ptr noundef @.str.176, ptr noundef %2, ptr noundef null)
  %5 = icmp ne i32 %4, 0
  br i1 %5, label %6, label %8

6:                                                ; preds = %0
  %7 = load i32, ptr %2, align 4, !tbaa !4
  store i32 %7, ptr %1, align 4
  store i32 1, ptr %3, align 4
  br label %9

8:                                                ; preds = %0
  store i32 0, ptr %1, align 4
  store i32 1, ptr %3, align 4
  br label %9

9:                                                ; preds = %8, %6
  call void @llvm.lifetime.end.p0(i64 4, ptr %2) #11
  %10 = load i32, ptr %1, align 4
  ret i32 %10
}