; Function Attrs: nounwind uwtable
define internal i32 @is_launchctl_available() #0 {
  %1 = alloca i32, align 4
  call void @llvm.lifetime.start.p0(i64 4, ptr nonnull %1) #21
  %2 = call fastcc i32 @get_schedule_cmd(ptr noundef nonnull @.str.176, ptr noundef nonnull %1, ptr noundef null)
  %.not = icmp eq i32 %2, 0
  %3 = load i32, ptr %1, align 4
  %.0 = select i1 %.not, i32 0, i32 %3
  call void @llvm.lifetime.end.p0(i64 4, ptr nonnull %1) #21
  ret i32 %.0
}